; Function Attrs: nounwind uwtable
define dso_local void @blockForAofFsync(ptr noundef initializes((488, 496), (512, 528)) %0, i64 noundef %1, i64 noundef %2, i32 noundef %3, i64 noundef %4) local_unnamed_addr #0 {
  %6 = getelementptr inbounds nuw i8, ptr %0, i64 488
  store i64 %1, ptr %6, align 8, !tbaa !28
  %7 = getelementptr inbounds nuw i8, ptr %0, i64 520
  store i64 %2, ptr %7, align 8, !tbaa !31
  %8 = trunc i64 %4 to i32
  %9 = getelementptr inbounds nuw i8, ptr %0, i64 512
  store i32 %8, ptr %9, align 8, !tbaa !30
  %10 = getelementptr inbounds nuw i8, ptr %0, i64 516
  store i32 %3, ptr %10, align 4, !tbaa !109
  %11 = load ptr, ptr getelementptr inbounds nuw (i8, ptr @server, i64 7504), align 8, !tbaa !108
  %12 = tail call ptr @listAddNodeHead(ptr noundef %11, ptr noundef %0) #5
  %13 = getelementptr inbounds nuw i8, ptr %0, i64 8
  %14 = load i64, ptr %13, align 8, !tbaa !34
  %.fr16.i = freeze i64 %14
  %15 = and i64 %.fr16.i, 2
  %16 = icmp eq i64 %15, 0
  br i1 %16, label %17, label %switch.early.test.i

switch.early.test.i:                              ; preds = %5
  tail call void @_serverAssert(ptr noundef nonnull @.str, ptr noundef nonnull @.str.1, i32 noundef 72) #5
  tail call void @abort() #6
  unreachable

17:                                               ; preds = %5
  %18 = or i64 %.fr16.i, 16
  store i64 %18, ptr %13, align 8, !tbaa !34
  %19 = getelementptr inbounds nuw i8, ptr %0, i64 480
  store i32 3, ptr %19, align 8, !tbaa !5
  %20 = and i64 %.fr16.i, 134217728
  %.not.i = icmp eq i64 %20, 0
  br i1 %.not.i, label %21, label %blockClient.exit

21:                                               ; preds = %17
  %22 = load i32, ptr getelementptr inbounds nuw (i8, ptr @server, i64 7588), align 4, !tbaa !35
  %23 = add i32 %22, 1
  store i32 %23, ptr getelementptr inbounds nuw (i8, ptr @server, i64 7588), align 4, !tbaa !35
  br label %blockClient.exit

blockClient.exit:                                 ; preds = %17, %21
  %24 = load i32, ptr getelementptr inbounds nuw (i8, ptr @server, i64 7604), align 4, !tbaa !56
  %25 = add i32 %24, 1
  store i32 %25, ptr getelementptr inbounds nuw (i8, ptr @server, i64 7604), align 4, !tbaa !56
  tail call void @addClientToTimeoutTable(ptr noundef nonnull %0) #5
  ret void
}